target datalayout = "e-m:e-p270:32:32-p271:32:32-p272:64:64-i64:64-i128:128-f80:128-n8:16:32:64-S128"
target triple = "x86_64-pc-linux-gnu"

@.str.104 = private unnamed_addr constant [13 x i8] c"Out of range\00", align 1
@.str.117 = private unnamed_addr constant [11 x i8] c"%.2f [\C2\B0C]\00", align 1

; Function Attrs: null_pointer_is_valid sspstrong uwtable
define internal void @decode_temp_meas_max_value(ptr noundef %0, i16 noundef signext %1) #0 {
  %3 = alloca ptr, align 8
  %4 = alloca i16, align 2
  store ptr %0, ptr %3, align 8
  store i16 %1, ptr %4, align 2
  %5 = load i16, ptr %4, align 2
  %6 = sext i16 %5 to i32
  %7 = icmp slt i32 %6, -27314
  br i1 %7, label %8, label %13

8:                                                ; preds = %2
  %9 = load ptr, ptr %3, align 8
  %10 = load ptr, ptr %3, align 8
  %11 = call i64 @llvm.objectsize.i64.p0(ptr %10, i1 false, i1 true, i1 true)
  %12 = call i32 (ptr, i64, i32, i64, ptr, ...) @__snprintf_chk(ptr noundef %9, i64 noundef 240, i32 noundef 2, i64 noundef %11, ptr noundef @.str.104)
  br label %22

13:                                               ; preds = %2
  %14 = load ptr, ptr %3, align 8
  %15 = load ptr, ptr %3, align 8
  %16 = call i64 @llvm.objectsize.i64.p0(ptr %15, i1 false, i1 true, i1 true)
  %17 = load i16, ptr %4, align 2
  %18 = sext i16 %17 to i32
  %19 = sitofp i32 %18 to double
  %20 = fdiv double %19, 1.000000e+02
  %21 = call i32 (ptr, i64, i32, i64, ptr, ...) @__snprintf_chk(ptr noundef %14, i64 noundef 240, i32 noundef 2, i64 noundef %16, ptr noundef @.str.117, double noundef %20)
  br label %22

22:                                               ; preds = %13, %8
  ret void
}