; Function Attrs: nofree null_pointer_is_valid sspstrong uwtable
define internal void @decode_temp_meas_max_value(ptr noundef %0, i16 noundef signext %1) #1 {
  %3 = icmp slt i16 %1, -27314
  br i1 %3, label %4, label %6

4:                                                ; preds = %2
  %5 = tail call i32 (ptr, i64, i32, i64, ptr, ...) @__snprintf_chk(ptr noundef %0, i64 noundef 240, i32 noundef 2, i64 noundef -1, ptr noundef nonnull @.str.104)
  br label %10

6:                                                ; preds = %2
  %7 = sitofp i16 %1 to double
  %8 = fdiv double %7, 1.000000e+02
  %9 = tail call i32 (ptr, i64, i32, i64, ptr, ...) @__snprintf_chk(ptr noundef %0, i64 noundef 240, i32 noundef 2, i64 noundef -1, ptr noundef nonnull @.str.117, double noundef %8)
  br label %10

10:                                               ; preds = %6, %4
  ret void
}